target datalayout = "e-m:e-p270:32:32-p271:32:32-p272:64:64-i64:64-i128:128-f80:128-n8:16:32:64-S128"
target triple = "x86_64-pc-linux-gnu"

; Function Attrs: nounwind uwtable
define dso_local i32 @fd_get_socket_error(i32 noundef %0, ptr noundef %1) #0 {
  %3 = alloca i32, align 4
  %4 = alloca i32, align 4
  %5 = alloca ptr, align 8
  %6 = alloca i32, align 4
  %7 = alloca i32, align 4
  store i32 %0, ptr %4, align 4
  store ptr %1, ptr %5, align 8
  call void @llvm.lifetime.start.p0(i64 4, ptr %6) #10
  store i32 4, ptr %6, align 4
  %8 = load ptr, ptr %5, align 8
  store i32 0, ptr %8, align 4
  %9 = load i32, ptr %4, align 4
  %10 = load ptr, ptr %5, align 8
  %11 = call i32 @getsockopt(i32 noundef %9, i32 noundef 1, i32 noundef 4, ptr noundef %10, ptr noundef %6) #10
  %12 = icmp ne i32 %11, 0
  br i1 %12, label %13, label %16

13:                                               ; preds = %2
  %14 = call ptr @__errno_location() #12
  %15 = load i32, ptr %14, align 4
  store i32 %15, ptr %3, align 4
  store i32 1, ptr %7, align 4
  br label %23

16:                                               ; preds = %2
  %17 = load ptr, ptr %5, align 8
  %18 = load i32, ptr %17, align 4
  %19 = icmp ne i32 %18, 0
  br i1 %19, label %22, label %20

20:                                               ; preds = %16
  %21 = load ptr, ptr %5, align 8
  store i32 1013, ptr %21, align 4
  br label %22

22:                                               ; preds = %20, %16
  store i32 0, ptr %3, align 4
  store i32 1, ptr %7, align 4
  br label %23

23:                                               ; preds = %22, %13
  call void @llvm.lifetime.end.p0(i64 4, ptr %6) #10
  %24 = load i32, ptr %3, align 4
  ret i32 %24
}