; Function Attrs: nounwind uwtable
define dso_local i32 @fd_get_socket_error(i32 noundef %0, ptr noundef initializes((0, 4)) %1) #0 {
  %3 = alloca i32, align 4
  call void @llvm.lifetime.start.p0(i64 4, ptr nonnull %3) #10
  store i32 4, ptr %3, align 4
  store i32 0, ptr %1, align 4
  %4 = call i32 @getsockopt(i32 noundef %0, i32 noundef 1, i32 noundef 4, ptr noundef nonnull %1, ptr noundef nonnull %3) #10
  %.not = icmp eq i32 %4, 0
  br i1 %.not, label %8, label %5

5:                                                ; preds = %2
  %6 = tail call ptr @__errno_location() #11
  %7 = load i32, ptr %6, align 4
  br label %11

8:                                                ; preds = %2
  %9 = load i32, ptr %1, align 4
  %.not5 = icmp eq i32 %9, 0
  br i1 %.not5, label %10, label %11

10:                                               ; preds = %8
  store i32 1013, ptr %1, align 4
  br label %11

11:                                               ; preds = %8, %10, %5
  %.0 = phi i32 [ %7, %5 ], [ 0, %10 ], [ 0, %8 ]
  call void @llvm.lifetime.end.p0(i64 4, ptr nonnull %3) #10
  ret i32 %.0
}